; Function Attrs: mustprogress uwtable
define noundef zeroext i1 @_ZNK8facebook5velox6common10MultiRange13testTimestampENS0_9TimestampE(ptr nocapture noundef nonnull readonly align 8 dereferenceable(48) %this, i64 %timestamp.coerce0, i64 %timestamp.coerce1) unnamed_addr #0 align 2 {
entry:
  %filters_ = getelementptr inbounds i8, ptr %this, i64 16
  %0 = load ptr, ptr %filters_, align 8
  %_M_finish.i = getelementptr inbounds i8, ptr %this, i64 24
  %1 = load ptr, ptr %_M_finish.i, align 8
  %cmp.i4.not = icmp eq ptr %0, %1
  br i1 %cmp.i4.not, label %return, label %for.body

for.body:                                         ; preds = %entry, %for.body
  %__begin2.sroa.0.05 = phi ptr [ %incdec.ptr.i, %for.body ], [ %0, %entry ]
  %2 = load ptr, ptr %__begin2.sroa.0.05, align 8
  %vtable = load ptr, ptr %2, align 8
  %vfn = getelementptr inbounds i8, ptr %vtable, i64 168
  %3 = load ptr, ptr %vfn, align 8
  %call7 = tail call noundef zeroext i1 %3(ptr noundef nonnull align 8 dereferenceable(16) %2, i64 %timestamp.coerce0, i64 %timestamp.coerce1)
  %incdec.ptr.i = getelementptr inbounds i8, ptr %__begin2.sroa.0.05, i64 8
  %cmp.i.not = icmp eq ptr %incdec.ptr.i, %1
  %or.cond = select i1 %call7, i1 true, i1 %cmp.i.not
  br i1 %or.cond, label %return, label %for.body

return:                                           ; preds = %for.body, %entry
  %cmp.i.lcssa = phi i1 [ false, %entry ], [ %call7, %for.body ]
  ret i1 %cmp.i.lcssa
}